target datalayout = "e-m:e-p270:32:32-p271:32:32-p272:64:64-i64:64-i128:128-f80:128-n8:16:32:64-S128"
target triple = "x86_64-pc-linux-gnu"

%class.Type = type <{ ptr, ptr, i32, [4 x i8] }>
%class.TypeInt = type { %class.TypeInteger.base, i32, i32 }
%class.TypeInteger.base = type { %class.Type.base, i16 }
%class.Type.base = type <{ ptr, ptr, i32 }>
%struct.BoolTest = type { i32 }

@_ZN4Type3TOPE = external global ptr, align 8
@_ZN7TypeInt4ZEROE = external global ptr, align 8
@_ZN7TypeInt5CC_LEE = external global ptr, align 8
@_ZN7TypeInt5CC_GEE = external global ptr, align 8
@_ZN7TypeInt4BOOLE = external global ptr, align 8
@_ZN7TypeInt3ONEE = external global ptr, align 8

; Function Attrs: mustprogress nounwind uwtable
define linkonce_odr hidden noundef i32 @_ZNK7TypeInt7get_conEv(ptr noundef nonnull align 8 dereferenceable(32) %0) #1 comdat align 2 {
  %2 = alloca ptr, align 8
  store ptr %0, ptr %2, align 8
  %3 = load ptr, ptr %2, align 8
  %4 = getelementptr inbounds %class.TypeInt, ptr %3, i32 0, i32 1
  %5 = load i32, ptr %4, align 8
  ret i32 %5
}

; Function Attrs: mustprogress nounwind uwtable
define linkonce_odr hidden noundef zeroext i1 @_ZNK7TypeInt6is_conEv(ptr noundef nonnull align 8 dereferenceable(32) %0) #1 comdat align 2 {
  %2 = alloca ptr, align 8
  store ptr %0, ptr %2, align 8
  %3 = load ptr, ptr %2, align 8
  %4 = getelementptr inbounds %class.TypeInt, ptr %3, i32 0, i32 1
  %5 = load i32, ptr %4, align 8
  %6 = getelementptr inbounds %class.TypeInt, ptr %3, i32 0, i32 2
  %7 = load i32, ptr %6, align 4
  %8 = icmp eq i32 %5, %7
  ret i1 %8
}

; Function Attrs: mustprogress nounwind uwtable
define linkonce_odr hidden noundef ptr @_ZNK4Type6is_intEv(ptr noundef nonnull align 8 dereferenceable(20) %0) #1 comdat align 2 {
  %2 = alloca ptr, align 8
  store ptr %0, ptr %2, align 8
  %3 = load ptr, ptr %2, align 8
  ret ptr %3
}

; Function Attrs: mustprogress nounwind uwtable
define linkonce_odr hidden noundef i32 @_ZNK4Type4baseEv(ptr noundef nonnull align 8 dereferenceable(20) %0) #1 comdat align 2 {
  %2 = alloca ptr, align 8
  store ptr %0, ptr %2, align 8
  %3 = load ptr, ptr %2, align 8
  %4 = getelementptr inbounds %class.Type, ptr %3, i32 0, i32 2
  %5 = load i32, ptr %4, align 8
  ret i32 %5
}

; Function Attrs: mustprogress nounwind uwtable
define hidden noundef ptr @_ZNK8BoolTest10cc2logicalEPK4Type(ptr noundef nonnull align 4 dereferenceable(4) %0, ptr noundef %1) #1 align 2 {
  %3 = alloca ptr, align 8
  %4 = alloca ptr, align 8
  %5 = alloca ptr, align 8
  %6 = alloca ptr, align 8
  %7 = alloca i32, align 4
  store ptr %0, ptr %4, align 8
  store ptr %1, ptr %5, align 8
  %8 = load ptr, ptr %4, align 8
  %9 = load ptr, ptr %5, align 8
  %10 = load ptr, ptr @_ZN4Type3TOPE, align 8
  %11 = icmp eq ptr %9, %10
  br i1 %11, label %12, label %14

12:                                               ; preds = %2
  %13 = load ptr, ptr @_ZN4Type3TOPE, align 8
  store ptr %13, ptr %3, align 8
  br label %80

14:                                               ; preds = %2
  %15 = load ptr, ptr %5, align 8
  %16 = call noundef i32 @_ZNK4Type4baseEv(ptr noundef nonnull align 8 dereferenceable(20) %15)
  %17 = icmp ne i32 %16, 3
  br i1 %17, label %18, label %20

18:                                               ; preds = %14
  %19 = load ptr, ptr @_ZN7TypeInt4BOOLE, align 8
  store ptr %19, ptr %3, align 8
  br label %80

20:                                               ; preds = %14
  %21 = load ptr, ptr %5, align 8
  %22 = call noundef ptr @_ZNK4Type6is_intEv(ptr noundef nonnull align 8 dereferenceable(20) %21)
  store ptr %22, ptr %6, align 8
  %23 = load ptr, ptr %6, align 8
  %24 = call noundef zeroext i1 @_ZNK7TypeInt6is_conEv(ptr noundef nonnull align 8 dereferenceable(32) %23)
  br i1 %24, label %25, label %44

25:                                               ; preds = %20
  %26 = load ptr, ptr %6, align 8
  %27 = call noundef i32 @_ZNK7TypeInt7get_conEv(ptr noundef nonnull align 8 dereferenceable(32) %26)
  %28 = and i32 %27, 3
  %29 = getelementptr inbounds %struct.BoolTest, ptr %8, i32 0, i32 0
  %30 = load i32, ptr %29, align 4
  %31 = and i32 %30, 3
  %32 = icmp eq i32 %28, %31
  %33 = select i1 %32, i32 1, i32 0
  store i32 %33, ptr %7, align 4
  %34 = getelementptr inbounds %struct.BoolTest, ptr %8, i32 0, i32 0
  %35 = load i32, ptr %34, align 4
  %36 = and i32 %35, 4
  %37 = icmp ne i32 %36, 0
  br i1 %37, label %38, label %41

38:                                               ; preds = %25
  %39 = load i32, ptr %7, align 4
  %40 = sub nsw i32 1, %39
  store i32 %40, ptr %7, align 4
  br label %41

41:                                               ; preds = %38, %25
  %42 = load i32, ptr %7, align 4
  %43 = call noundef ptr @_ZN7TypeInt4makeEi(i32 noundef %42)
  store ptr %43, ptr %3, align 8
  br label %80

44:                                               ; preds = %20
  %45 = load ptr, ptr %5, align 8
  %46 = load ptr, ptr @_ZN7TypeInt5CC_GEE, align 8
  %47 = icmp eq ptr %45, %46
  br i1 %47, label %48, label %61

48:                                               ; preds = %44
  %49 = getelementptr inbounds %struct.BoolTest, ptr %8, i32 0, i32 0
  %50 = load i32, ptr %49, align 4
  %51 = icmp eq i32 %50, 7
  br i1 %51, label %52, label %54

52:                                               ; preds = %48
  %53 = load ptr, ptr @_ZN7TypeInt3ONEE, align 8
  store ptr %53, ptr %3, align 8
  br label %80

54:                                               ; preds = %48
  %55 = getelementptr inbounds %struct.BoolTest, ptr %8, i32 0, i32 0
  %56 = load i32, ptr %55, align 4
  %57 = icmp eq i32 %56, 3
  br i1 %57, label %58, label %60

58:                                               ; preds = %54
  %59 = load ptr, ptr @_ZN7TypeInt4ZEROE, align 8
  store ptr %59, ptr %3, align 8
  br label %80

60:                                               ; preds = %54
  br label %61

61:                                               ; preds = %60, %44
  %62 = load ptr, ptr %5, align 8
  %63 = load ptr, ptr @_ZN7TypeInt5CC_LEE, align 8
  %64 = icmp eq ptr %62, %63
  br i1 %64, label %65, label %78

65:                                               ; preds = %61
  %66 = getelementptr inbounds %struct.BoolTest, ptr %8, i32 0, i32 0
  %67 = load i32, ptr %66, align 4
  %68 = icmp eq i32 %67, 5
  br i1 %68, label %69, label %71

69:                                               ; preds = %65
  %70 = load ptr, ptr @_ZN7TypeInt3ONEE, align 8
  store ptr %70, ptr %3, align 8
  br label %80

71:                                               ; preds = %65
  %72 = getelementptr inbounds %struct.BoolTest, ptr %8, i32 0, i32 0
  %73 = load i32, ptr %72, align 4
  %74 = icmp eq i32 %73, 1
  br i1 %74, label %75, label %77

75:                                               ; preds = %71
  %76 = load ptr, ptr @_ZN7TypeInt4ZEROE, align 8
  store ptr %76, ptr %3, align 8
  br label %80

77:                                               ; preds = %71
  br label %78

78:                                               ; preds = %77, %61
  %79 = load ptr, ptr @_ZN7TypeInt4BOOLE, align 8
  store ptr %79, ptr %3, align 8
  br label %80

80:                                               ; preds = %78, %75, %69, %58, %52, %41, %18, %12
  %81 = load ptr, ptr %3, align 8
  ret ptr %81
}