; Function Attrs: mustprogress nounwind uwtable
define hidden noundef ptr @_ZNK8BoolTest10cc2logicalEPK4Type(ptr nocapture noundef nonnull readonly align 4 dereferenceable(4) %0, ptr noundef readonly %1) local_unnamed_addr #0 align 2 {
  %3 = load ptr, ptr @_ZN4Type3TOPE, align 8
  %4 = icmp eq ptr %3, %1
  br i1 %4, label %44, label %5

5:                                                ; preds = %2
  %6 = getelementptr inbounds i8, ptr %1, i64 16
  %7 = load i32, ptr %6, align 8
  %.not = icmp eq i32 %7, 3
  br i1 %.not, label %10, label %8

8:                                                ; preds = %5
  %9 = load ptr, ptr @_ZN7TypeInt4BOOLE, align 8
  br label %44

10:                                               ; preds = %5
  %11 = getelementptr inbounds i8, ptr %1, i64 24
  %12 = load i32, ptr %11, align 8
  %13 = getelementptr inbounds i8, ptr %1, i64 28
  %14 = load i32, ptr %13, align 4
  %15 = icmp eq i32 %12, %14
  br i1 %15, label %16, label %24

16:                                               ; preds = %10
  %17 = load i32, ptr %0, align 4
  %18 = xor i32 %17, %12
  %19 = and i32 %18, 3
  %20 = icmp eq i32 %19, 0
  %21 = and i32 %17, 4
  %22 = icmp ne i32 %21, 0
  %spec.select = xor i1 %22, %20
  %.0 = zext i1 %spec.select to i32
  %23 = tail call noundef ptr @_ZN7TypeInt4makeEi(i32 noundef %.0) #10
  br label %44

24:                                               ; preds = %10
  %25 = load ptr, ptr @_ZN7TypeInt5CC_GEE, align 8
  %26 = icmp eq ptr %25, %1
  br i1 %26, label %27, label %33

27:                                               ; preds = %24
  %28 = load i32, ptr %0, align 4
  switch i32 %28, label %33 [
    i32 7, label %29
    i32 3, label %31
  ]

29:                                               ; preds = %27
  %30 = load ptr, ptr @_ZN7TypeInt3ONEE, align 8
  br label %44

31:                                               ; preds = %27
  %32 = load ptr, ptr @_ZN7TypeInt4ZEROE, align 8
  br label %44

33:                                               ; preds = %27, %24
  %34 = load ptr, ptr @_ZN7TypeInt5CC_LEE, align 8
  %35 = icmp eq ptr %34, %1
  br i1 %35, label %36, label %42

36:                                               ; preds = %33
  %37 = load i32, ptr %0, align 4
  switch i32 %37, label %42 [
    i32 5, label %38
    i32 1, label %40
  ]

38:                                               ; preds = %36
  %39 = load ptr, ptr @_ZN7TypeInt3ONEE, align 8
  br label %44

40:                                               ; preds = %36
  %41 = load ptr, ptr @_ZN7TypeInt4ZEROE, align 8
  br label %44

42:                                               ; preds = %36, %33
  %43 = load ptr, ptr @_ZN7TypeInt4BOOLE, align 8
  br label %44

44:                                               ; preds = %2, %42, %40, %38, %31, %29, %16, %8
  %.010 = phi ptr [ %9, %8 ], [ %23, %16 ], [ %30, %29 ], [ %32, %31 ], [ %39, %38 ], [ %41, %40 ], [ %43, %42 ], [ %3, %2 ]
  ret ptr %.010
}